target datalayout = "e-m:e-p270:32:32-p271:32:32-p272:64:64-i64:64-i128:128-f80:128-n8:16:32:64-S128"
target triple = "x86_64-pc-linux-gnu"

%class.QWidget = type { %class.QObject, %class.QPaintDevice, ptr }
%class.QObject = type { ptr, %class.QScopedPointer }
%class.QScopedPointer = type { ptr }
%class.QPaintDevice = type { ptr, i16, ptr }
%class.MLRenderingFloatSlider = type <{ %class.MLFloatSlider, ptr, i32, [4 x i8] }>
%class.MLFloatSlider = type { %class.QSlider }
%class.QSlider = type { %class.QAbstractSlider }
%class.QAbstractSlider = type { %class.QWidget }

; Function Attrs: mustprogress uwtable
define void @_ZN22MLRenderingFloatSlider19setAssociatedMeshIdEi(ptr noundef nonnull align 8 dereferenceable(60) %0, i32 noundef %1) #5 align 2 {
  %3 = alloca ptr, align 8
  %4 = alloca i32, align 4
  store ptr %0, ptr %3, align 8
  store i32 %1, ptr %4, align 4
  %5 = load ptr, ptr %3, align 8
  %6 = load i32, ptr %4, align 4
  %7 = getelementptr inbounds %class.MLRenderingFloatSlider, ptr %5, i32 0, i32 2
  store i32 %6, ptr %7, align 8
  %8 = getelementptr inbounds %class.MLRenderingFloatSlider, ptr %5, i32 0, i32 1
  %9 = load ptr, ptr %8, align 8
  %10 = icmp ne ptr %9, null
  br i1 %10, label %11, label %16

11:                                               ; preds = %2
  %12 = getelementptr inbounds %class.MLRenderingFloatSlider, ptr %5, i32 0, i32 1
  %13 = load ptr, ptr %12, align 8
  %14 = getelementptr inbounds %class.MLRenderingFloatSlider, ptr %5, i32 0, i32 2
  %15 = load i32, ptr %14, align 8
  call void @_ZN17MLRenderingAction9setMeshIdEi(ptr noundef nonnull align 8 dereferenceable(16) %13, i32 noundef %15)
  br label %16

16:                                               ; preds = %11, %2
  ret void
}