; Function Attrs: mustprogress uwtable
define void @_ZN22MLRenderingFloatSlider19setAssociatedMeshIdEi(ptr nocapture noundef nonnull align 8 dereferenceable(60) %0, i32 noundef %1) local_unnamed_addr #3 align 2 {
  %3 = getelementptr inbounds i8, ptr %0, i64 56
  store i32 %1, ptr %3, align 8
  %4 = getelementptr inbounds i8, ptr %0, i64 48
  %5 = load ptr, ptr %4, align 8
  %.not = icmp eq ptr %5, null
  br i1 %.not, label %7, label %6

6:                                                ; preds = %2
  tail call void @_ZN17MLRenderingAction9setMeshIdEi(ptr noundef nonnull align 8 dereferenceable(16) %5, i32 noundef %1)
  br label %7

7:                                                ; preds = %6, %2
  ret void
}